; Function Attrs: mustprogress uwtable
define void @_ZN7mitsuba10FileStream5closeEv(ptr nocapture noundef nonnull readonly align 8 dereferenceable(64) %0) unnamed_addr #0 align 2 {
  %2 = getelementptr inbounds i8, ptr %0, i64 56
  %3 = load ptr, ptr %2, align 8
  %4 = getelementptr inbounds i8, ptr %3, i64 24
  %5 = tail call noundef ptr @_ZNSt3__113basic_filebufIcNS_11char_traitsIcEEE5closeEv(ptr noundef nonnull align 8 dereferenceable(163) %4)
  %6 = icmp eq ptr %5, null
  br i1 %6, label %7, label %_ZNSt3__113basic_fstreamIcNS_11char_traitsIcEEE5closeEv.exit

7:                                                ; preds = %1
  %8 = load ptr, ptr %3, align 8
  %9 = getelementptr i8, ptr %8, i64 -24
  %10 = load i64, ptr %9, align 8
  %11 = getelementptr inbounds i8, ptr %3, i64 %10
  %12 = getelementptr inbounds i8, ptr %11, i64 32
  %13 = load i32, ptr %12, align 8
  %14 = or i32 %13, 4
  tail call void @_ZNSt3__18ios_base5clearEj(ptr noundef nonnull align 8 dereferenceable(136) %11, i32 noundef %14)
  br label %_ZNSt3__113basic_fstreamIcNS_11char_traitsIcEEE5closeEv.exit

_ZNSt3__113basic_fstreamIcNS_11char_traitsIcEEE5closeEv.exit: ; preds = %1, %7
  ret void
}